(lp0
(lp1
I121
aI164
aI91
aI113
aI83
aI118
aI16
aI35
aI21
aI16
aI133
aI122
aI23
aI6
aI56
aI25
aI49
aI16
aI133
aI22
aI136
aI190
aI153
aI112
aI53
aI147
aI50
aI40
aI41
aI56
aI18
aI131
aI90
aI19
aI104
aI35
aI114
aI120
aI1
aI130
aI78
aI104
aI81
aI131
aI135
aI107
aI43
aI118
aI71
aI75
aI114
aI30
aI98
aI26
aI1
aI11
aI20
aI106
aI23
aI64
aI64
aI178
aI156
aI20
aI39
aI62
aI98
aI84
aI32
aI76
aa(lp2
I147
aI7
aI34
aI74
aI79
aI12
aI122
aI170
aI86
aI192
aI78
aI156
aI72
aI10
aI38
aI32
aI85
aI28
aI130
aI59
aI134
aI23
aI143
aI10
aI10
aI4
aI84
aI69
aI14
aI134
aI106
aI145
aI55
aI116
aI119
aI35
aI0
aI199
aI138
aI156
aI45
aI40
aI48
aI90
aI146
aI62
aI92
aI12
aI2
aI40
aI195
aI45
aI57
aI36
aI44
aI56
aI69
aI75
aI64
aI88
aI125
aI4
aI181
aI27
aI3
aI91
aI56
aI12
aI98
aI129
aa(lp3
I127
aI0
aI125
aI91
aI51
aI45
aI29
aI30
aI132
aI94
aI129
aI39
aI42
aI127
aI45
aI20
aI54
aI58
aI128
aI31
aI29
aI0
aI79
aI28
aI130
aI2
aI103
aI0
aI52
aI132
aI25
aI45
aI51
aI27
aI89
aI11
aI42
aI126
aI103
aI83
aI50
aI91
aI93
aI30
aI3
aI24
aI111
aI28
aI59
aI80
aI52
aI34
aI71
aI86
aI172
aI147
aI0
aI62
aI100
aI174
aI17
aI86
aI4
aI43
aI69
aI129
aI23
aI17
aI13
aI188
aa(lp4
I196
aI22
aI127
aI88
aI11
aI63
aI48
aI178
aI13
aI71
aI133
aI13
aI185
aI43
aI137
aI58
aI166
aI140
aI126
aI134
aI78
aI129
aI167
aI0
aI8
aI35
aI114
aI128
aI76
aI126
aI0
aI56
aI11
aI7
aI44
aI105
aI2
aI42
aI123
aI23
aI88
aI30
aI31
aI25
aI150
aI84
aI79
aI55
aI9
aI186
aI188
aI68
aI135
aI124
aI49
aI138
aI35
aI156
aI68
aI18
aI119
aI54
aI21
aI144
aI11
aI98
aI189
aI58
aI37
aI87
aa(lp5
I140
aI96
aI148
aI184
aI99
aI112
aI41
aI56
aI90
aI86
aI16
aI157
aI93
aI15
aI108
aI168
aI129
aI34
aI24
aI152
aI131
aI186
aI107
aI55
aI83
aI165
aI189
aI71
aI148
aI72
aI36
aI1
aI128
aI171
aI44
aI177
aI141
aI34
aI13
aI52
aI7
aI157
aI50
aI39
aI73
aI59
aI29
aI9
aI87
aI55
aI141
aI114
aI34
aI134
aI166
aI8
aI50
aI127
aI26
aI9
aI125
aI99
aI46
aI164
aI33
aI3
aI43
aI170
aI95
aI58
aa(lp6
I125
aI50
aI68
aI108
aI33
aI75
aI53
aI81
aI12
aI96
aI47
aI137
aI84
aI112
aI23
aI149
aI30
aI54
aI47
aI21
aI79
aI14
aI117
aI44
aI81
aI114
aI29
aI107
aI174
aI150
aI20
aI50
aI100
aI16
aI147
aI186
aI61
aI63
aI36
aI23
aI9
aI35
aI112
aI59
aI49
aI189
aI16
aI15
aI25
aI90
aI198
aI71
aI20
aI21
aI92
aI104
aI94
aI48
aI49
aI34
aI76
aI40
aI21
aI191
aI107
aI17
aI123
aI23
aI149
aI87
aa(lp7
I150
aI23
aI32
aI39
aI109
aI183
aI129
aI44
aI43
aI145
aI132
aI23
aI137
aI102
aI11
aI93
aI40
aI10
aI127
aI19
aI88
aI73
aI14
aI58
aI48
aI35
aI50
aI17
aI67
aI171
aI121
aI81
aI76
aI75
aI133
aI138
aI64
aI133
aI32
aI72
aI192
aI55
aI4
aI36
aI0
aI15
aI15
aI4
aI88
aI97
aI70
aI184
aI126
aI11
aI98
aI150
aI15
aI69
aI124
aI0
aI88
aI52
aI74
aI119
aI17
aI72
aI92
aI135
aI70
aI97
aa(lp8
I72
aI58
aI13
aI91
aI160
aI6
aI95
aI22
aI69
aI73
aI184
aI0
aI14
aI73
aI73
aI26
aI118
aI0
aI110
aI8
aI46
aI145
aI18
aI157
aI1
aI88
aI81
aI168
aI48
aI13
aI45
aI97
aI125
aI65
aI24
aI15
aI183
aI51
aI171
aI25
aI14
aI60
aI94
aI148
aI0
aI17
aI46
aI1
aI84
aI88
aI85
aI31
aI40
aI59
aI62
aI174
aI120
aI115
aI90
aI57
aI2
aI37
aI105
aI75
aI99
aI91
aI46
aI45
aI116
aI109
aa(lp9
I199
aI144
aI167
aI58
aI58
aI80
aI89
aI98
aI23
aI42
aI118
aI128
aI0
aI156
aI31
aI99
aI135
aI95
aI93
aI48
aI64
aI29
aI59
aI56
aI3
aI132
aI39
aI47
aI199
aI34
aI45
aI92
aI83
aI127
aI0
aI136
aI167
aI15
aI6
aI71
aI8
aI191
aI102
aI41
aI81
aI126
aI7
aI50
aI82
aI132
aI13
aI0
aI121
aI23
aI40
aI177
aI23
aI48
aI175
aI46
aI156
aI1
aI77
aI199
aI30
aI88
aI8
aI65
aI71
aI6
aa(lp10
I21
aI118
aI97
aI75
aI177
aI114
aI99
aI107
aI46
aI86
aI167
aI168
aI16
aI148
aI43
aI48
aI9
aI12
aI34
aI25
aI8
aI22
aI18
aI91
aI46
aI55
aI182
aI143
aI119
aI54
aI145
aI45
aI162
aI142
aI144
aI61
aI138
aI21
aI42
aI37
aI38
aI26
aI127
aI52
aI29
aI74
aI47
aI30
aI29
aI2
aI66
aI150
aI2
aI25
aI128
aI14
aI103
aI124
aI12
aI27
aI115
aI154
aI85
aI133
aI32
aI84
aI60
aI103
aI55
aI114
aa(lp11
I65
aI120
aI101
aI143
aI107
aI82
aI41
aI71
aI19
aI30
aI134
aI44
aI36
aI112
aI83
aI96
aI101
aI12
aI166
aI43
aI113
aI105
aI0
aI89
aI23
aI109
aI19
aI0
aI113
aI180
aI146
aI172
aI125
aI176
aI81
aI31
aI121
aI81
aI78
aI63
aI64
aI88
aI134
aI78
aI147
aI53
aI95
aI135
aI58
aI57
aI57
aI24
aI53
aI80
aI84
aI143
aI161
aI135
aI166
aI72
aI0
aI9
aI95
aI129
aI91
aI11
aI14
aI37
aI55
aI116
aa(lp12
I21
aI100
aI58
aI57
aI119
aI10
aI18
aI130
aI74
aI66
aI152
aI154
aI127
aI166
aI97
aI0
aI74
aI139
aI103
aI148
aI40
aI32
aI184
aI62
aI64
aI50
aI84
aI172
aI46
aI98
aI195
aI20
aI43
aI99
aI45
aI4
aI135
aI0
aI87
aI7
aI62
aI0
aI101
aI101
aI23
aI62
aI109
aI72
aI11
aI39
aI13
aI52
aI107
aI22
aI97
aI23
aI23
aI47
aI49
aI91
aI86
aI133
aI8
aI90
aI2
aI52
aI200
aI182
aI193
aI76
aa(lp13
I8
aI24
aI107
aI91
aI13
aI61
aI31
aI148
aI58
aI154
aI1
aI197
aI147
aI57
aI42
aI74
aI56
aI18
aI187
aI15
aI116
aI64
aI7
aI24
aI97
aI59
aI9
aI19
aI37
aI3
aI99
aI60
aI89
aI84
aI33
aI0
aI69
aI178
aI162
aI88
aI165
aI179
aI143
aI91
aI9
aI41
aI100
aI173
aI16
aI154
aI190
aI46
aI45
aI91
aI14
aI21
aI16
aI47
aI66
aI115
aI49
aI0
aI18
aI6
aI124
aI92
aI29
aI0
aI11
aI89
aa(lp14
I120
aI56
aI22
aI25
aI2
aI78
aI127
aI37
aI132
aI22
aI6
aI4
aI50
aI7
aI199
aI197
aI100
aI0
aI67
aI79
aI57
aI187
aI120
aI24
aI88
aI112
aI40
aI98
aI17
aI94
aI37
aI90
aI95
aI32
aI180
aI58
aI75
aI49
aI56
aI192
aI197
aI84
aI12
aI51
aI52
aI188
aI80
aI0
aI2
aI52
aI98
aI75
aI37
aI76
aI94
aI8
aI78
aI76
aI39
aI75
aI27
aI0
aI20
aI157
aI30
aI35
aI69
aI39
aI24
aI14
aa(lp15
I105
aI85
aI23
aI171
aI30
aI54
aI21
aI17
aI22
aI28
aI8
aI76
aI35
aI28
aI141
aI142
aI51
aI122
aI8
aI95
aI129
aI104
aI63
aI4
aI119
aI117
aI18
aI153
aI128
aI83
aI69
aI131
aI19
aI7
aI48
aI32
aI72
aI51
aI53
aI14
aI14
aI67
aI59
aI48
aI68
aI147
aI80
aI9
aI38
aI64
aI113
aI17
aI5
aI25
aI41
aI35
aI56
aI49
aI122
aI24
aI17
aI9
aI16
aI144
aI66
aI1
aI107
aI56
aI136
aI26
aa(lp16
I117
aI33
aI67
aI4
aI163
aI29
aI40
aI41
aI147
aI13
aI17
aI134
aI16
aI130
aI19
aI97
aI29
aI83
aI91
aI5
aI140
aI115
aI140
aI51
aI113
aI113
aI6
aI80
aI12
aI186
aI157
aI104
aI122
aI97
aI42
aI124
aI10
aI8
aI26
aI31
aI157
aI114
aI190
aI126
aI58
aI169
aI65
aI127
aI16
aI44
aI116
aI106
aI112
aI31
aI61
aI127
aI40
aI52
aI52
aI32
aI40
aI69
aI88
aI41
aI95
aI58
aI33
aI42
aI42
aI5
aa(lp17
I140
aI141
aI25
aI0
aI8
aI116
aI83
aI130
aI22
aI190
aI10
aI29
aI148
aI94
aI84
aI25
aI15
aI12
aI63
aI8
aI22
aI68
aI132
aI81
aI82
aI76
aI122
aI70
aI56
aI180
aI91
aI94
aI189
aI72
aI167
aI42
aI199
aI193
aI144
aI77
aI200
aI133
aI34
aI106
aI163
aI0
aI99
aI89
aI12
aI2
aI32
aI87
aI3
aI32
aI83
aI142
aI91
aI113
aI51
aI199
aI42
aI75
aI76
aI24
aI112
aI105
aI186
aI75
aI73
aI88
aa(lp18
I145
aI128
aI182
aI12
aI95
aI99
aI88
aI92
aI118
aI75
aI194
aI16
aI21
aI115
aI9
aI45
aI88
aI45
aI102
aI100
aI70
aI84
aI78
aI4
aI64
aI62
aI46
aI108
aI129
aI106
aI144
aI98
aI143
aI8
aI37
aI55
aI86
aI42
aI82
aI161
aI31
aI72
aI43
aI58
aI157
aI122
aI17
aI30
aI95
aI185
aI51
aI189
aI103
aI159
aI183
aI118
aI120
aI77
aI107
aI36
aI189
aI18
aI46
aI25
aI66
aI57
aI57
aI106
aI11
aI50
aa(lp19
I3
aI184
aI60
aI9
aI47
aI96
aI1
aI192
aI78
aI49
aI12
aI61
aI126
aI32
aI12
aI166
aI102
aI67
aI64
aI3
aI55
aI41
aI186
aI98
aI42
aI81
aI153
aI3
aI130
aI122
aI75
aI12
aI31
aI185
aI18
aI29
aI27
aI159
aI18
aI40
aI0
aI138
aI34
aI40
aI32
aI47
aI22
aI133
aI39
aI61
aI40
aI34
aI43
aI132
aI198
aI6
aI190
aI101
aI144
aI150
aI1
aI0
aI199
aI21
aI11
aI41
aI185
aI53
aI52
aI36
aa(lp20
I116
aI32
aI36
aI69
aI28
aI16
aI37
aI21
aI82
aI22
aI9
aI144
aI72
aI126
aI133
aI19
aI132
aI176
aI59
aI85
aI51
aI43
aI129
aI145
aI0
aI71
aI0
aI42
aI111
aI51
aI9
aI52
aI70
aI94
aI42
aI28
aI178
aI94
aI85
aI69
aI168
aI150
aI20
aI34
aI61
aI35
aI60
aI75
aI46
aI68
aI122
aI9
aI12
aI34
aI95
aI98
aI40
aI56
aI172
aI103
aI17
aI17
aI194
aI66
aI87
aI180
aI115
aI3
aI115
aI82
aa(lp21
I38
aI119
aI5
aI30
aI91
aI45
aI18
aI82
aI3
aI86
aI74
aI49
aI29
aI72
aI121
aI86
aI141
aI78
aI1
aI148
aI48
aI81
aI149
aI132
aI91
aI35
aI29
aI143
aI75
aI80
aI58
aI134
aI42
aI83
aI14
aI38
aI25
aI18
aI28
aI50
aI99
aI58
aI24
aI134
aI5
aI144
aI7
aI70
aI52
aI136
aI3
aI170
aI11
aI37
aI27
aI0
aI149
aI65
aI47
aI126
aI58
aI145
aI50
aI38
aI9
aI162
aI74
aI25
aI15
aI65
aa(lp22
I30
aI97
aI13
aI53
aI16
aI113
aI29
aI110
aI40
aI88
aI85
aI55
aI109
aI58
aI100
aI119
aI18
aI40
aI102
aI10
aI106
aI45
aI49
aI196
aI133
aI178
aI37
aI136
aI92
aI70
aI191
aI39
aI25
aI3
aI70
aI69
aI20
aI40
aI134
aI18
aI7
aI16
aI179
aI20
aI66
aI43
aI137
aI21
aI169
aI99
aI147
aI79
aI138
aI26
aI18
aI133
aI190
aI56
aI55
aI4
aI84
aI90
aI189
aI21
aI101
aI15
aI21
aI33
aI2
aI127
aa(lp23
I4
aI118
aI107
aI150
aI65
aI184
aI126
aI55
aI148
aI38
aI72
aI118
aI14
aI45
aI5
aI16
aI30
aI122
aI74
aI190
aI77
aI136
aI132
aI122
aI193
aI30
aI48
aI88
aI20
aI1
aI101
aI150
aI18
aI17
aI71
aI195
aI119
aI49
aI68
aI136
aI38
aI126
aI17
aI8
aI81
aI113
aI33
aI39
aI99
aI26
aI40
aI134
aI121
aI19
aI10
aI76
aI159
aI5
aI43
aI85
aI4
aI93
aI120
aI55
aI78
aI36
aI4
aI30
aI50
aI66
aa(lp24
I111
aI5
aI28
aI17
aI60
aI9
aI154
aI113
aI11
aI98
aI135
aI5
aI28
aI96
aI72
aI111
aI26
aI26
aI58
aI129
aI79
aI55
aI100
aI54
aI65
aI53
aI104
aI95
aI39
aI11
aI45
aI106
aI99
aI30
aI117
aI134
aI8
aI1
aI28
aI19
aI17
aI136
aI101
aI6
aI68
aI37
aI147
aI26
aI1
aI187
aI24
aI155
aI15
aI42
aI89
aI86
aI116
aI37
aI116
aI21
aI79
aI128
aI191
aI121
aI0
aI96
aI103
aI127
aI60
aI75
aa(lp25
I100
aI66
aI6
aI8
aI79
aI88
aI34
aI25
aI64
aI78
aI89
aI82
aI175
aI89
aI0
aI78
aI54
aI117
aI35
aI108
aI155
aI24
aI69
aI123
aI199
aI90
aI196
aI18
aI139
aI37
aI131
aI160
aI22
aI55
aI18
aI71
aI104
aI72
aI25
aI70
aI128
aI67
aI59
aI25
aI113
aI54
aI5
aI166
aI13
aI21
aI121
aI28
aI111
aI0
aI44
aI31
aI89
aI103
aI13
aI1
aI21
aI88
aI21
aI29
aI41
aI114
aI40
aI0
aI53
aI0
aa(lp26
I17
aI125
aI30
aI94
aI65
aI11
aI123
aI25
aI175
aI200
aI93
aI6
aI33
aI42
aI89
aI131
aI32
aI25
aI37
aI84
aI65
aI118
aI39
aI87
aI46
aI53
aI7
aI92
aI0
aI132
aI89
aI6
aI30
aI20
aI98
aI15
aI114
aI147
aI33
aI137
aI102
aI178
aI75
aI95
aI22
aI47
aI150
aI2
aI10
aI102
aI8
aI132
aI97
aI99
aI109
aI141
aI84
aI54
aI98
aI13
aI49
aI32
aI15
aI13
aI69
aI68
aI33
aI146
aI2
aI28
aa(lp27
I12
aI31
aI108
aI89
aI27
aI131
aI107
aI20
aI11
aI55
aI67
aI64
aI130
aI7
aI0
aI67
aI14
aI128
aI190
aI36
aI144
aI140
aI24
aI68
aI72
aI31
aI42
aI20
aI5
aI186
aI11
aI13
aI32
aI47
aI158
aI163
aI36
aI139
aI79
aI33
aI9
aI145
aI55
aI80
aI0
aI35
aI0
aI67
aI88
aI0
aI52
aI32
aI174
aI61
aI144
aI13
aI60
aI76
aI7
aI11
aI87
aI149
aI62
aI6
aI109
aI73
aI100
aI64
aI92
aI149
aa(lp28
I23
aI61
aI200
aI64
aI57
aI173
aI79
aI5
aI68
aI44
aI17
aI121
aI65
aI23
aI22
aI57
aI125
aI83
aI136
aI12
aI105
aI0
aI115
aI32
aI100
aI68
aI144
aI175
aI14
aI97
aI9
aI80
aI96
aI42
aI69
aI30
aI29
aI123
aI24
aI2
aI111
aI180
aI84
aI16
aI80
aI59
aI86
aI144
aI100
aI139
aI140
aI165
aI73
aI43
aI163
aI0
aI75
aI91
aI35
aI81
aI114
aI139
aI158
aI48
aI16
aI50
aI33
aI76
aI147
aI128
aa(lp29
I170
aI59
aI27
aI74
aI196
aI198
aI124
aI14
aI45
aI75
aI91
aI10
aI145
aI164
aI100
aI187
aI72
aI74
aI92
aI68
aI66
aI71
aI16
aI75
aI11
aI61
aI0
aI62
aI44
aI92
aI17
aI20
aI74
aI78
aI99
aI36
aI18
aI117
aI181
aI44
aI1
aI88
aI135
aI116
aI97
aI77
aI49
aI87
aI23
aI71
aI158
aI24
aI19
aI65
aI69
aI10
aI15
aI17
aI12
aI116
aI42
aI35
aI8
aI151
aI150
aI157
aI95
aI11
aI59
aI54
aa(lp30
I56
aI195
aI12
aI139
aI110
aI24
aI105
aI16
aI80
aI74
aI198
aI106
aI116
aI30
aI48
aI70
aI46
aI43
aI48
aI81
aI4
aI134
aI19
aI68
aI0
aI52
aI14
aI45
aI88
aI105
aI62
aI36
aI97
aI38
aI24
aI67
aI107
aI108
aI0
aI45
aI3
aI37
aI17
aI5
aI168
aI134
aI16
aI143
aI38
aI83
aI26
aI152
aI63
aI156
aI180
aI94
aI79
aI41
aI22
aI55
aI168
aI162
aI77
aI12
aI173
aI0
aI59
aI99
aI45
aI137
aa.