(lp0
(lp1
I56
aI49
aI8
aI56
aI33
aI13
aI87
aI52
aI133
aI97
aI90
aI28
aI154
aI22
aI64
aI28
aI35
aI159
aI191
aI123
aI147
aI77
aI39
aI87
aI21
aI29
aI65
aI100
aI86
aI120
aI63
aI13
aI36
aI6
aI76
aI6
aI134
aI38
aI92
aI119
aI93
aI60
aI10
aI98
aI189
aI29
aI134
aI15
aI37
aI47
aI47
aI88
aI165
aI68
aI43
aI91
aI137
aI10
aI169
aI139
aI188
aI95
aI21
aI50
aI85
aI71
aI131
aI30
aI23
aI93
aa(lp2
I83
aI22
aI1
aI98
aI144
aI3
aI123
aI119
aI145
aI182
aI75
aI45
aI32
aI67
aI88
aI63
aI137
aI2
aI56
aI55
aI148
aI1
aI2
aI160
aI131
aI173
aI116
aI85
aI83
aI106
aI34
aI166
aI55
aI106
aI50
aI150
aI32
aI9
aI77
aI113
aI129
aI42
aI25
aI42
aI71
aI97
aI84
aI72
aI61
aI21
aI44
aI35
aI52
aI15
aI62
aI83
aI131
aI78
aI24
aI37
aI92
aI7
aI53
aI16
aI34
aI13
aI73
aI90
aI124
aI21
aa(lp3
I43
aI156
aI14
aI34
aI27
aI104
aI90
aI142
aI95
aI198
aI146
aI40
aI172
aI77
aI175
aI31
aI152
aI27
aI127
aI2
aI16
aI43
aI135
aI80
aI142
aI34
aI18
aI41
aI66
aI9
aI199
aI25
aI24
aI183
aI26
aI134
aI4
aI69
aI46
aI134
aI90
aI21
aI136
aI102
aI174
aI38
aI30
aI133
aI154
aI68
aI71
aI10
aI82
aI136
aI1
aI47
aI42
aI17
aI185
aI72
aI130
aI95
aI33
aI59
aI122
aI102
aI136
aI20
aI24
aI56
aa(lp4
I104
aI19
aI74
aI129
aI111
aI37
aI19
aI55
aI32
aI193
aI104
aI4
aI142
aI35
aI39
aI196
aI149
aI100
aI18
aI25
aI22
aI50
aI155
aI16
aI133
aI8
aI36
aI6
aI23
aI169
aI42
aI105
aI44
aI100
aI5
aI64
aI5
aI149
aI2
aI40
aI1
aI70
aI84
aI106
aI120
aI45
aI74
aI1
aI119
aI87
aI94
aI16
aI84
aI169
aI196
aI37
aI174
aI105
aI30
aI69
aI6
aI53
aI179
aI148
aI8
aI74
aI175
aI7
aI125
aI155
aa(lp5
I34
aI39
aI140
aI45
aI175
aI5
aI181
aI44
aI185
aI41
aI149
aI125
aI3
aI62
aI116
aI142
aI34
aI31
aI133
aI195
aI27
aI48
aI39
aI168
aI21
aI107
aI117
aI135
aI92
aI93
aI1
aI98
aI36
aI84
aI13
aI15
aI17
aI142
aI19
aI101
aI86
aI19
aI26
aI2
aI76
aI56
aI22
aI35
aI61
aI94
aI36
aI63
aI3
aI22
aI78
aI73
aI149
aI61
aI21
aI168
aI174
aI144
aI47
aI178
aI113
aI1
aI149
aI37
aI38
aI147
aa(lp6
I13
aI49
aI103
aI42
aI94
aI136
aI49
aI28
aI19
aI123
aI7
aI140
aI0
aI139
aI48
aI146
aI1
aI54
aI162
aI197
aI30
aI149
aI61
aI54
aI8
aI60
aI197
aI14
aI8
aI72
aI94
aI10
aI18
aI181
aI135
aI61
aI109
aI46
aI33
aI29
aI98
aI40
aI138
aI81
aI3
aI20
aI35
aI44
aI21
aI12
aI151
aI54
aI163
aI121
aI66
aI70
aI54
aI9
aI74
aI119
aI25
aI110
aI150
aI55
aI6
aI4
aI21
aI123
aI171
aI17
aa(lp7
I64
aI93
aI23
aI0
aI97
aI56
aI0
aI127
aI198
aI71
aI39
aI23
aI168
aI110
aI115
aI132
aI84
aI126
aI72
aI158
aI177
aI124
aI39
aI3
aI34
aI64
aI107
aI4
aI58
aI61
aI4
aI71
aI84
aI50
aI103
aI49
aI19
aI46
aI48
aI56
aI41
aI28
aI142
aI78
aI189
aI17
aI3
aI34
aI122
aI103
aI15
aI7
aI131
aI7
aI78
aI195
aI72
aI78
aI44
aI14
aI40
aI52
aI58
aI105
aI29
aI50
aI48
aI9
aI170
aI94
aa(lp8
I4
aI146
aI111
aI31
aI48
aI36
aI124
aI11
aI36
aI186
aI169
aI26
aI105
aI143
aI0
aI198
aI20
aI83
aI94
aI53
aI34
aI157
aI80
aI62
aI73
aI65
aI62
aI173
aI25
aI27
aI17
aI193
aI97
aI83
aI42
aI74
aI93
aI15
aI15
aI83
aI114
aI16
aI29
aI67
aI100
aI129
aI65
aI22
aI74
aI83
aI118
aI25
aI137
aI113
aI41
aI50
aI30
aI81
aI29
aI81
aI92
aI7
aI157
aI0
aI52
aI1
aI66
aI34
aI57
aI120
aa(lp9
I67
aI92
aI21
aI55
aI179
aI139
aI0
aI48
aI112
aI91
aI35
aI91
aI100
aI47
aI40
aI72
aI1
aI63
aI16
aI162
aI142
aI29
aI41
aI25
aI1
aI69
aI43
aI48
aI32
aI28
aI67
aI111
aI19
aI47
aI89
aI177
aI21
aI190
aI109
aI4
aI136
aI15
aI200
aI60
aI86
aI14
aI97
aI36
aI27
aI37
aI80
aI38
aI3
aI6
aI58
aI3
aI46
aI30
aI126
aI55
aI67
aI129
aI81
aI13
aI110
aI98
aI125
aI50
aI112
aI170
aa(lp10
I20
aI13
aI172
aI35
aI194
aI122
aI100
aI57
aI78
aI102
aI83
aI137
aI15
aI6
aI134
aI14
aI66
aI32
aI106
aI147
aI106
aI150
aI61
aI25
aI130
aI70
aI7
aI106
aI170
aI36
aI23
aI102
aI104
aI185
aI91
aI23
aI41
aI23
aI19
aI173
aI64
aI2
aI7
aI136
aI24
aI134
aI85
aI55
aI91
aI2
aI111
aI126
aI1
aI39
aI41
aI5
aI20
aI46
aI45
aI60
aI129
aI74
aI77
aI45
aI184
aI6
aI110
aI63
aI31
aI71
aa(lp11
I2
aI53
aI47
aI143
aI172
aI20
aI56
aI186
aI30
aI31
aI68
aI91
aI47
aI96
aI182
aI33
aI39
aI142
aI110
aI54
aI74
aI82
aI92
aI20
aI19
aI86
aI61
aI10
aI65
aI63
aI44
aI36
aI88
aI90
aI80
aI108
aI48
aI6
aI53
aI115
aI95
aI4
aI49
aI31
aI13
aI21
aI160
aI5
aI38
aI31
aI55
aI85
aI3
aI51
aI2
aI90
aI120
aI82
aI20
aI18
aI19
aI99
aI123
aI171
aI52
aI18
aI121
aI31
aI70
aI74
aa(lp12
I153
aI85
aI65
aI48
aI33
aI181
aI43
aI106
aI132
aI85
aI70
aI136
aI166
aI9
aI87
aI25
aI37
aI197
aI191
aI84
aI145
aI23
aI10
aI33
aI122
aI60
aI106
aI60
aI46
aI89
aI8
aI93
aI11
aI28
aI85
aI31
aI14
aI135
aI149
aI122
aI20
aI134
aI29
aI63
aI100
aI12
aI184
aI9
aI53
aI95
aI132
aI69
aI39
aI43
aI19
aI72
aI56
aI12
aI39
aI45
aI61
aI152
aI14
aI113
aI28
aI4
aI108
aI105
aI87
aI23
aa(lp13
I52
aI38
aI70
aI191
aI24
aI148
aI124
aI158
aI87
aI88
aI49
aI106
aI120
aI101
aI109
aI156
aI54
aI46
aI65
aI99
aI86
aI16
aI6
aI22
aI176
aI192
aI29
aI97
aI21
aI87
aI17
aI136
aI127
aI180
aI41
aI128
aI28
aI17
aI74
aI56
aI34
aI22
aI4
aI33
aI57
aI47
aI100
aI61
aI27
aI50
aI31
aI80
aI12
aI164
aI166
aI149
aI39
aI35
aI49
aI26
aI30
aI16
aI68
aI8
aI41
aI77
aI85
aI36
aI38
aI37
aa(lp14
I82
aI37
aI188
aI12
aI158
aI109
aI50
aI72
aI97
aI23
aI28
aI85
aI149
aI17
aI138
aI184
aI143
aI41
aI173
aI122
aI110
aI147
aI36
aI65
aI65
aI71
aI25
aI116
aI40
aI96
aI5
aI125
aI150
aI59
aI42
aI29
aI12
aI40
aI3
aI41
aI72
aI140
aI6
aI141
aI42
aI44
aI17
aI142
aI31
aI64
aI48
aI158
aI105
aI21
aI82
aI26
aI41
aI149
aI20
aI46
aI109
aI115
aI3
aI147
aI64
aI46
aI22
aI79
aI26
aI94
aa(lp15
I91
aI2
aI27
aI1
aI7
aI5
aI139
aI21
aI147
aI120
aI118
aI24
aI58
aI54
aI175
aI81
aI96
aI69
aI153
aI50
aI144
aI121
aI137
aI14
aI40
aI71
aI112
aI151
aI42
aI46
aI19
aI30
aI66
aI62
aI56
aI22
aI38
aI101
aI10
aI18
aI47
aI150
aI50
aI76
aI42
aI145
aI74
aI19
aI104
aI30
aI103
aI84
aI9
aI114
aI86
aI117
aI150
aI75
aI62
aI47
aI95
aI117
aI85
aI5
aI21
aI20
aI156
aI73
aI88
aI66
aa(lp16
I98
aI41
aI41
aI108
aI23
aI73
aI46
aI53
aI145
aI32
aI166
aI131
aI85
aI57
aI21
aI97
aI47
aI171
aI131
aI144
aI90
aI66
aI0
aI12
aI17
aI72
aI17
aI29
aI53
aI61
aI46
aI13
aI31
aI6
aI98
aI40
aI9
aI83
aI106
aI92
aI74
aI16
aI36
aI106
aI82
aI15
aI9
aI4
aI17
aI85
aI63
aI135
aI35
aI74
aI118
aI168
aI30
aI100
aI65
aI104
aI0
aI5
aI116
aI92
aI71
aI35
aI92
aI95
aI49
aI23
aa(lp17
I146
aI178
aI126
aI75
aI46
aI17
aI96
aI100
aI189
aI46
aI42
aI87
aI8
aI85
aI32
aI184
aI101
aI76
aI60
aI150
aI125
aI102
aI72
aI53
aI156
aI57
aI99
aI19
aI59
aI32
aI5
aI55
aI196
aI63
aI55
aI10
aI8
aI93
aI158
aI121
aI66
aI74
aI2
aI85
aI4
aI163
aI89
aI72
aI141
aI56
aI128
aI114
aI58
aI26
aI127
aI33
aI141
aI49
aI64
aI14
aI115
aI46
aI51
aI43
aI128
aI133
aI15
aI150
aI127
aI48
aa(lp18
I23
aI99
aI41
aI89
aI108
aI102
aI84
aI37
aI16
aI101
aI91
aI80
aI132
aI145
aI62
aI186
aI13
aI28
aI85
aI57
aI13
aI40
aI157
aI19
aI66
aI138
aI108
aI29
aI196
aI123
aI192
aI100
aI12
aI133
aI122
aI7
aI40
aI100
aI19
aI77
aI100
aI58
aI189
aI7
aI128
aI78
aI43
aI19
aI148
aI28
aI36
aI159
aI28
aI85
aI195
aI6
aI130
aI136
aI129
aI22
aI128
aI197
aI150
aI59
aI53
aI95
aI12
aI4
aI10
aI121
aa(lp19
I126
aI44
aI14
aI91
aI26
aI14
aI114
aI19
aI83
aI27
aI9
aI25
aI103
aI53
aI1
aI200
aI8
aI62
aI94
aI162
aI200
aI23
aI14
aI99
aI156
aI141
aI101
aI150
aI82
aI149
aI52
aI31
aI48
aI143
aI55
aI39
aI102
aI12
aI111
aI2
aI195
aI37
aI129
aI70
aI98
aI86
aI54
aI37
aI101
aI77
aI54
aI30
aI138
aI199
aI16
aI96
aI173
aI2
aI59
aI18
aI150
aI140
aI92
aI82
aI96
aI159
aI160
aI50
aI47
aI18
aa(lp20
I129
aI63
aI60
aI91
aI89
aI50
aI39
aI61
aI92
aI39
aI126
aI62
aI145
aI14
aI131
aI26
aI14
aI53
aI88
aI123
aI67
aI19
aI93
aI71
aI136
aI142
aI6
aI191
aI148
aI69
aI20
aI169
aI110
aI19
aI93
aI39
aI23
aI81
aI11
aI12
aI108
aI62
aI163
aI9
aI16
aI28
aI142
aI87
aI30
aI19
aI56
aI189
aI25
aI71
aI89
aI107
aI90
aI59
aI30
aI113
aI160
aI152
aI54
aI45
aI99
aI35
aI32
aI22
aI148
aI44
aa(lp21
I31
aI128
aI35
aI58
aI118
aI134
aI26
aI22
aI173
aI196
aI49
aI14
aI4
aI100
aI145
aI193
aI40
aI33
aI83
aI28
aI25
aI64
aI47
aI42
aI121
aI0
aI70
aI70
aI34
aI59
aI91
aI146
aI159
aI81
aI154
aI25
aI174
aI65
aI35
aI25
aI138
aI18
aI53
aI66
aI91
aI9
aI49
aI3
aI20
aI4
aI162
aI54
aI88
aI56
aI40
aI26
aI24
aI97
aI193
aI32
aI38
aI78
aI130
aI2
aI97
aI77
aI3
aI35
aI25
aI27
aa(lp22
I159
aI58
aI45
aI140
aI68
aI88
aI74
aI29
aI63
aI178
aI3
aI122
aI174
aI7
aI50
aI163
aI29
aI15
aI5
aI118
aI136
aI197
aI87
aI15
aI80
aI120
aI4
aI58
aI7
aI13
aI71
aI86
aI25
aI70
aI178
aI97
aI7
aI194
aI165
aI17
aI7
aI87
aI17
aI36
aI103
aI9
aI84
aI67
aI124
aI80
aI128
aI122
aI3
aI1
aI147
aI10
aI98
aI54
aI121
aI32
aI130
aI14
aI80
aI28
aI51
aI18
aI137
aI200
aI22
aI66
aa(lp23
I7
aI1
aI188
aI33
aI60
aI93
aI132
aI45
aI114
aI85
aI136
aI45
aI141
aI9
aI167
aI85
aI7
aI43
aI131
aI129
aI82
aI187
aI120
aI70
aI42
aI26
aI56
aI191
aI8
aI140
aI131
aI46
aI16
aI64
aI28
aI57
aI111
aI47
aI98
aI38
aI41
aI31
aI154
aI166
aI50
aI42
aI71
aI96
aI29
aI103
aI115
aI28
aI35
aI18
aI117
aI36
aI17
aI176
aI171
aI58
aI3
aI83
aI34
aI181
aI59
aI163
aI42
aI125
aI140
aI0
aa(lp24
I133
aI141
aI3
aI123
aI29
aI19
aI67
aI75
aI100
aI70
aI20
aI21
aI44
aI110
aI98
aI28
aI61
aI38
aI11
aI71
aI136
aI15
aI146
aI143
aI28
aI78
aI98
aI62
aI95
aI55
aI169
aI145
aI26
aI62
aI13
aI8
aI88
aI187
aI24
aI3
aI135
aI144
aI98
aI60
aI90
aI97
aI18
aI123
aI80
aI115
aI21
aI84
aI46
aI55
aI7
aI150
aI32
aI10
aI31
aI32
aI167
aI106
aI104
aI197
aI24
aI46
aI40
aI2
aI36
aI76
aa(lp25
I80
aI126
aI139
aI74
aI19
aI49
aI71
aI114
aI190
aI96
aI74
aI168
aI1
aI56
aI80
aI2
aI10
aI64
aI15
aI62
aI9
aI175
aI20
aI49
aI38
aI44
aI85
aI71
aI97
aI34
aI18
aI85
aI47
aI110
aI56
aI115
aI133
aI83
aI76
aI85
aI11
aI62
aI62
aI6
aI109
aI129
aI33
aI10
aI126
aI12
aI9
aI51
aI114
aI49
aI85
aI64
aI74
aI50
aI15
aI97
aI198
aI33
aI72
aI18
aI24
aI12
aI114
aI27
aI150
aI18
aa(lp26
I51
aI85
aI141
aI98
aI200
aI50
aI64
aI130
aI70
aI128
aI178
aI43
aI7
aI49
aI76
aI94
aI3
aI18
aI30
aI37
aI45
aI9
aI42
aI25
aI76
aI13
aI115
aI11
aI104
aI55
aI176
aI101
aI58
aI30
aI88
aI17
aI94
aI130
aI125
aI117
aI166
aI61
aI29
aI27
aI145
aI36
aI138
aI114
aI129
aI35
aI29
aI12
aI30
aI178
aI18
aI198
aI19
aI30
aI45
aI103
aI106
aI136
aI94
aI95
aI32
aI117
aI192
aI49
aI114
aI8
aa(lp27
I33
aI20
aI6
aI81
aI69
aI23
aI90
aI27
aI63
aI48
aI105
aI106
aI44
aI44
aI128
aI108
aI85
aI25
aI36
aI46
aI38
aI136
aI111
aI120
aI44
aI91
aI112
aI72
aI57
aI23
aI39
aI21
aI23
aI130
aI109
aI198
aI99
aI58
aI11
aI86
aI15
aI143
aI50
aI17
aI80
aI25
aI59
aI26
aI53
aI45
aI160
aI55
aI99
aI66
aI38
aI3
aI53
aI104
aI96
aI72
aI10
aI54
aI67
aI192
aI91
aI9
aI143
aI8
aI153
aI144
aa(lp28
I97
aI142
aI49
aI32
aI171
aI126
aI25
aI64
aI58
aI102
aI13
aI75
aI13
aI181
aI44
aI68
aI121
aI149
aI139
aI81
aI189
aI171
aI45
aI138
aI100
aI136
aI45
aI145
aI8
aI11
aI37
aI173
aI134
aI9
aI60
aI47
aI98
aI23
aI38
aI41
aI58
aI32
aI48
aI81
aI7
aI82
aI18
aI22
aI85
aI37
aI43
aI77
aI38
aI84
aI146
aI150
aI64
aI7
aI116
aI58
aI76
aI28
aI56
aI128
aI114
aI79
aI91
aI96
aI16
aI84
aa(lp29
I68
aI197
aI200
aI187
aI38
aI79
aI60
aI129
aI136
aI150
aI130
aI37
aI145
aI109
aI167
aI81
aI146
aI81
aI148
aI143
aI41
aI28
aI105
aI65
aI80
aI2
aI50
aI29
aI160
aI45
aI19
aI146
aI16
aI28
aI78
aI97
aI36
aI71
aI165
aI104
aI17
aI13
aI29
aI143
aI140
aI146
aI63
aI34
aI32
aI61
aI66
aI169
aI134
aI53
aI103
aI149
aI149
aI67
aI67
aI67
aI26
aI6
aI66
aI45
aI3
aI133
aI36
aI125
aI67
aI199
aa(lp30
I50
aI87
aI53
aI29
aI16
aI24
aI124
aI17
aI133
aI150
aI13
aI73
aI178
aI145
aI168
aI39
aI144
aI92
aI92
aI59
aI93
aI72
aI14
aI144
aI78
aI14
aI196
aI30
aI112
aI26
aI1
aI65
aI24
aI8
aI105
aI55
aI151
aI184
aI3
aI67
aI95
aI84
aI132
aI138
aI6
aI11
aI49
aI90
aI180
aI41
aI1
aI33
aI82
aI134
aI18
aI101
aI61
aI26
aI84
aI164
aI8
aI77
aI146
aI157
aI111
aI62
aI193
aI99
aI13
aI4
aa.