(lp0
(lp1
I77
aI49
aI16
aI15
aI27
aI0
aI12
aI99
aI106
aI8
aI154
aI67
aI100
aI146
aI31
aI95
aI30
aI71
aI51
aI78
aI16
aI15
aI10
aI170
aI60
aI111
aI160
aI54
aI38
aI153
aI60
aI39
aI47
aI199
aI85
aI116
aI135
aI0
aI30
aI1
aI186
aI112
aI41
aI24
aI27
aI80
aI7
aI154
aI55
aI14
aI154
aI8
aI61
aI23
aI132
aI136
aI97
aI38
aI27
aI161
aI139
aI118
aI75
aI148
aI15
aI52
aI90
aI13
aI119
aI7
aa(lp2
I123
aI49
aI28
aI125
aI120
aI50
aI196
aI90
aI142
aI50
aI35
aI42
aI112
aI147
aI74
aI90
aI20
aI111
aI23
aI92
aI70
aI55
aI199
aI4
aI30
aI98
aI0
aI195
aI2
aI53
aI80
aI72
aI84
aI12
aI0
aI90
aI21
aI34
aI110
aI1
aI32
aI168
aI0
aI55
aI48
aI35
aI112
aI113
aI7
aI39
aI86
aI152
aI1
aI39
aI111
aI160
aI28
aI52
aI75
aI142
aI82
aI43
aI76
aI77
aI58
aI45
aI10
aI99
aI31
aI0
aa(lp3
I37
aI65
aI15
aI0
aI5
aI179
aI135
aI42
aI18
aI89
aI35
aI170
aI42
aI44
aI39
aI102
aI48
aI2
aI19
aI54
aI39
aI18
aI25
aI6
aI191
aI32
aI138
aI17
aI97
aI55
aI68
aI42
aI17
aI45
aI90
aI159
aI185
aI79
aI149
aI44
aI0
aI113
aI43
aI24
aI9
aI156
aI7
aI5
aI17
aI32
aI100
aI40
aI60
aI133
aI86
aI27
aI57
aI96
aI141
aI12
aI52
aI81
aI147
aI72
aI130
aI75
aI83
aI71
aI112
aI177
aa(lp4
I43
aI86
aI45
aI54
aI21
aI14
aI24
aI109
aI57
aI89
aI85
aI88
aI27
aI174
aI99
aI55
aI3
aI45
aI143
aI46
aI38
aI24
aI0
aI15
aI48
aI163
aI18
aI34
aI21
aI0
aI101
aI46
aI10
aI79
aI60
aI16
aI25
aI15
aI70
aI38
aI102
aI28
aI62
aI25
aI43
aI93
aI74
aI84
aI46
aI69
aI16
aI8
aI73
aI119
aI53
aI8
aI32
aI154
aI121
aI31
aI3
aI33
aI25
aI69
aI9
aI29
aI12
aI83
aI44
aI81
aa(lp5
I16
aI42
aI46
aI89
aI74
aI179
aI130
aI189
aI20
aI101
aI13
aI118
aI47
aI95
aI99
aI52
aI43
aI16
aI162
aI128
aI71
aI26
aI139
aI69
aI82
aI97
aI109
aI61
aI11
aI78
aI118
aI45
aI16
aI31
aI81
aI63
aI45
aI24
aI196
aI12
aI38
aI170
aI17
aI48
aI58
aI142
aI141
aI49
aI84
aI7
aI11
aI59
aI19
aI40
aI28
aI14
aI61
aI194
aI67
aI48
aI67
aI51
aI47
aI128
aI32
aI0
aI22
aI172
aI188
aI156
aa(lp6
I2
aI34
aI63
aI155
aI17
aI17
aI78
aI120
aI62
aI114
aI71
aI98
aI71
aI28
aI36
aI0
aI198
aI43
aI25
aI0
aI87
aI76
aI25
aI11
aI95
aI35
aI192
aI195
aI109
aI1
aI67
aI100
aI35
aI93
aI122
aI69
aI78
aI0
aI65
aI25
aI128
aI2
aI123
aI2
aI144
aI46
aI10
aI0
aI80
aI185
aI48
aI109
aI26
aI17
aI35
aI86
aI7
aI72
aI13
aI73
aI17
aI170
aI67
aI47
aI14
aI7
aI28
aI74
aI14
aI6
aa(lp7
I191
aI109
aI111
aI77
aI23
aI30
aI166
aI4
aI193
aI0
aI83
aI84
aI49
aI76
aI36
aI95
aI2
aI87
aI48
aI190
aI147
aI43
aI16
aI85
aI64
aI112
aI102
aI159
aI41
aI52
aI32
aI108
aI86
aI5
aI119
aI92
aI56
aI37
aI111
aI164
aI7
aI31
aI69
aI159
aI75
aI124
aI131
aI0
aI82
aI46
aI48
aI100
aI76
aI147
aI86
aI199
aI193
aI29
aI37
aI52
aI2
aI32
aI14
aI18
aI185
aI0
aI0
aI35
aI51
aI132
aa(lp8
I78
aI73
aI77
aI192
aI40
aI92
aI95
aI38
aI43
aI44
aI15
aI109
aI52
aI4
aI181
aI91
aI33
aI9
aI73
aI133
aI43
aI10
aI0
aI0
aI87
aI55
aI81
aI69
aI92
aI124
aI28
aI86
aI0
aI41
aI0
aI61
aI36
aI50
aI48
aI181
aI5
aI168
aI124
aI3
aI84
aI167
aI34
aI69
aI0
aI124
aI16
aI61
aI19
aI106
aI149
aI0
aI65
aI90
aI79
aI12
aI100
aI119
aI84
aI176
aI19
aI66
aI26
aI78
aI0
aI98
aa(lp9
I115
aI93
aI87
aI28
aI112
aI76
aI46
aI11
aI129
aI0
aI0
aI98
aI47
aI86
aI102
aI17
aI17
aI14
aI47
aI67
aI170
aI40
aI187
aI31
aI30
aI92
aI69
aI18
aI105
aI36
aI95
aI76
aI41
aI48
aI109
aI0
aI58
aI165
aI71
aI30
aI105
aI51
aI0
aI109
aI41
aI39
aI143
aI66
aI0
aI64
aI121
aI87
aI1
aI121
aI0
aI35
aI174
aI34
aI84
aI25
aI66
aI187
aI77
aI23
aI0
aI127
aI200
aI18
aI11
aI21
aa(lp10
I33
aI22
aI5
aI84
aI5
aI11
aI81
aI148
aI172
aI3
aI18
aI107
aI95
aI32
aI75
aI37
aI103
aI15
aI162
aI20
aI79
aI85
aI70
aI199
aI95
aI128
aI64
aI3
aI35
aI22
aI46
aI181
aI9
aI112
aI159
aI7
aI95
aI6
aI133
aI18
aI131
aI33
aI190
aI152
aI13
aI118
aI78
aI114
aI2
aI88
aI73
aI42
aI22
aI2
aI125
aI25
aI41
aI0
aI0
aI0
aI26
aI44
aI71
aI161
aI70
aI5
aI159
aI54
aI11
aI115
aa(lp11
I99
aI0
aI78
aI181
aI98
aI139
aI46
aI91
aI4
aI41
aI41
aI80
aI26
aI60
aI114
aI125
aI31
aI145
aI31
aI104
aI4
aI56
aI9
aI21
aI171
aI43
aI151
aI90
aI67
aI119
aI63
aI66
aI76
aI93
aI91
aI29
aI82
aI60
aI46
aI48
aI65
aI174
aI43
aI87
aI42
aI61
aI129
aI99
aI36
aI66
aI60
aI89
aI141
aI78
aI82
aI57
aI39
aI23
aI87
aI57
aI134
aI46
aI28
aI20
aI83
aI122
aI0
aI181
aI91
aI23
aa(lp12
I119
aI141
aI49
aI81
aI4
aI20
aI4
aI99
aI100
aI59
aI7
aI0
aI92
aI77
aI6
aI150
aI36
aI48
aI86
aI14
aI111
aI85
aI147
aI117
aI132
aI71
aI18
aI42
aI21
aI38
aI113
aI103
aI18
aI60
aI107
aI197
aI69
aI133
aI144
aI42
aI105
aI53
aI4
aI10
aI30
aI1
aI192
aI49
aI38
aI55
aI0
aI27
aI141
aI10
aI14
aI148
aI30
aI14
aI185
aI21
aI9
aI72
aI30
aI0
aI64
aI27
aI59
aI87
aI14
aI108
aa(lp13
I42
aI34
aI150
aI20
aI120
aI13
aI108
aI24
aI19
aI88
aI136
aI9
aI148
aI20
aI5
aI58
aI112
aI23
aI199
aI131
aI33
aI144
aI55
aI145
aI90
aI33
aI5
aI67
aI26
aI44
aI8
aI171
aI3
aI16
aI40
aI77
aI29
aI120
aI23
aI0
aI55
aI19
aI113
aI57
aI11
aI14
aI112
aI16
aI23
aI107
aI111
aI70
aI0
aI127
aI153
aI112
aI194
aI69
aI53
aI58
aI121
aI11
aI94
aI114
aI113
aI195
aI117
aI69
aI1
aI185
aa(lp14
I6
aI76
aI123
aI0
aI27
aI121
aI32
aI6
aI98
aI62
aI89
aI174
aI120
aI14
aI18
aI47
aI170
aI121
aI93
aI129
aI92
aI174
aI115
aI149
aI22
aI24
aI60
aI21
aI136
aI51
aI147
aI103
aI188
aI116
aI74
aI128
aI191
aI43
aI70
aI68
aI36
aI29
aI43
aI68
aI15
aI0
aI38
aI147
aI3
aI195
aI9
aI2
aI108
aI87
aI60
aI47
aI144
aI23
aI46
aI84
aI32
aI54
aI93
aI56
aI141
aI118
aI187
aI51
aI27
aI16
aa(lp15
I114
aI105
aI26
aI33
aI53
aI0
aI148
aI0
aI37
aI36
aI159
aI67
aI29
aI1
aI39
aI82
aI141
aI101
aI102
aI72
aI20
aI34
aI14
aI178
aI141
aI27
aI93
aI0
aI28
aI116
aI102
aI6
aI177
aI0
aI173
aI35
aI49
aI64
aI36
aI200
aI110
aI136
aI5
aI34
aI62
aI68
aI177
aI120
aI0
aI12
aI144
aI100
aI9
aI8
aI157
aI0
aI135
aI26
aI97
aI19
aI0
aI146
aI20
aI16
aI179
aI2
aI0
aI173
aI131
aI70
aa(lp16
I1
aI53
aI76
aI146
aI88
aI186
aI0
aI102
aI0
aI37
aI139
aI116
aI14
aI113
aI196
aI94
aI169
aI13
aI102
aI43
aI111
aI92
aI47
aI0
aI63
aI91
aI16
aI26
aI48
aI0
aI36
aI149
aI166
aI94
aI54
aI11
aI90
aI2
aI65
aI0
aI191
aI33
aI54
aI16
aI67
aI28
aI68
aI34
aI48
aI150
aI25
aI2
aI30
aI30
aI34
aI139
aI123
aI45
aI197
aI1
aI2
aI126
aI39
aI80
aI147
aI187
aI4
aI80
aI166
aI117
aa(lp17
I48
aI94
aI55
aI94
aI93
aI73
aI23
aI142
aI164
aI115
aI158
aI41
aI83
aI52
aI115
aI88
aI70
aI89
aI8
aI39
aI50
aI3
aI37
aI68
aI79
aI0
aI87
aI199
aI82
aI33
aI108
aI34
aI51
aI10
aI104
aI38
aI131
aI148
aI90
aI24
aI150
aI1
aI96
aI2
aI92
aI0
aI84
aI28
aI78
aI20
aI141
aI128
aI66
aI24
aI132
aI76
aI123
aI143
aI89
aI24
aI20
aI92
aI127
aI33
aI5
aI177
aI154
aI24
aI42
aI55
aa(lp18
I72
aI117
aI120
aI189
aI102
aI144
aI77
aI118
aI22
aI42
aI35
aI0
aI52
aI131
aI96
aI96
aI113
aI185
aI195
aI0
aI191
aI5
aI10
aI0
aI111
aI94
aI0
aI69
aI139
aI138
aI95
aI29
aI18
aI49
aI7
aI23
aI19
aI147
aI85
aI134
aI78
aI13
aI28
aI130
aI17
aI85
aI38
aI28
aI39
aI130
aI144
aI0
aI14
aI178
aI83
aI11
aI30
aI78
aI23
aI38
aI102
aI70
aI47
aI63
aI51
aI125
aI149
aI64
aI116
aI36
aa(lp19
I0
aI94
aI177
aI101
aI128
aI48
aI40
aI189
aI17
aI140
aI11
aI115
aI13
aI11
aI6
aI3
aI90
aI49
aI37
aI6
aI22
aI41
aI40
aI0
aI84
aI54
aI105
aI69
aI135
aI48
aI175
aI39
aI86
aI12
aI83
aI42
aI15
aI0
aI51
aI134
aI79
aI20
aI84
aI91
aI127
aI27
aI130
aI38
aI0
aI33
aI38
aI150
aI80
aI88
aI129
aI5
aI29
aI86
aI10
aI127
aI97
aI87
aI14
aI38
aI103
aI70
aI145
aI120
aI83
aI102
aa(lp20
I0
aI55
aI84
aI186
aI84
aI119
aI61
aI31
aI15
aI72
aI144
aI81
aI137
aI161
aI143
aI154
aI31
aI99
aI72
aI80
aI144
aI76
aI42
aI142
aI2
aI192
aI192
aI144
aI105
aI55
aI22
aI64
aI22
aI18
aI152
aI37
aI190
aI121
aI81
aI19
aI86
aI95
aI21
aI42
aI43
aI106
aI168
aI88
aI185
aI37
aI74
aI187
aI20
aI141
aI10
aI41
aI69
aI87
aI34
aI100
aI97
aI19
aI4
aI10
aI28
aI0
aI65
aI4
aI65
aI0
aa(lp21
I149
aI1
aI33
aI105
aI100
aI126
aI84
aI0
aI33
aI23
aI67
aI41
aI67
aI61
aI136
aI57
aI77
aI120
aI46
aI8
aI38
aI169
aI55
aI82
aI82
aI49
aI166
aI40
aI22
aI73
aI53
aI39
aI16
aI89
aI98
aI7
aI95
aI93
aI117
aI22
aI11
aI197
aI102
aI2
aI96
aI48
aI26
aI80
aI20
aI77
aI36
aI7
aI100
aI18
aI55
aI8
aI96
aI52
aI87
aI17
aI18
aI146
aI69
aI19
aI39
aI3
aI20
aI192
aI47
aI31
aa(lp22
I118
aI86
aI59
aI159
aI17
aI47
aI84
aI157
aI85
aI45
aI45
aI21
aI84
aI41
aI171
aI130
aI3
aI200
aI27
aI18
aI30
aI85
aI24
aI67
aI0
aI6
aI0
aI19
aI97
aI78
aI192
aI181
aI51
aI149
aI73
aI125
aI93
aI85
aI123
aI58
aI98
aI136
aI28
aI146
aI64
aI0
aI77
aI90
aI89
aI103
aI0
aI14
aI15
aI95
aI177
aI126
aI24
aI150
aI93
aI22
aI87
aI104
aI45
aI43
aI144
aI29
aI0
aI54
aI104
aI167
aa(lp23
I43
aI188
aI143
aI0
aI100
aI35
aI84
aI46
aI0
aI23
aI20
aI1
aI94
aI50
aI35
aI66
aI110
aI38
aI144
aI32
aI142
aI0
aI24
aI75
aI26
aI39
aI14
aI147
aI20
aI68
aI38
aI122
aI43
aI124
aI37
aI39
aI151
aI28
aI94
aI104
aI87
aI91
aI0
aI41
aI0
aI13
aI32
aI26
aI1
aI103
aI11
aI56
aI54
aI45
aI149
aI138
aI91
aI28
aI48
aI0
aI15
aI43
aI48
aI69
aI161
aI40
aI25
aI2
aI45
aI31
aa(lp24
I85
aI99
aI85
aI143
aI9
aI93
aI54
aI102
aI16
aI32
aI43
aI16
aI0
aI145
aI80
aI11
aI78
aI70
aI1
aI181
aI89
aI38
aI14
aI31
aI99
aI62
aI0
aI37
aI110
aI130
aI63
aI46
aI14
aI37
aI33
aI119
aI158
aI56
aI63
aI136
aI99
aI111
aI71
aI78
aI71
aI4
aI122
aI77
aI47
aI3
aI24
aI80
aI189
aI121
aI4
aI75
aI150
aI25
aI192
aI102
aI14
aI17
aI65
aI99
aI10
aI24
aI49
aI147
aI18
aI30
aa(lp25
I128
aI79
aI39
aI111
aI125
aI45
aI57
aI61
aI105
aI7
aI7
aI187
aI45
aI98
aI95
aI16
aI129
aI114
aI83
aI96
aI23
aI55
aI54
aI109
aI92
aI110
aI22
aI112
aI0
aI29
aI0
aI20
aI94
aI79
aI128
aI138
aI68
aI71
aI94
aI25
aI195
aI116
aI48
aI22
aI165
aI41
aI130
aI34
aI42
aI95
aI42
aI16
aI54
aI39
aI86
aI64
aI25
aI30
aI65
aI45
aI174
aI123
aI183
aI102
aI17
aI88
aI137
aI82
aI37
aI5
aa(lp26
I137
aI33
aI100
aI0
aI45
aI61
aI79
aI133
aI75
aI195
aI107
aI117
aI0
aI154
aI0
aI131
aI19
aI78
aI47
aI64
aI31
aI86
aI32
aI125
aI65
aI14
aI39
aI77
aI114
aI32
aI179
aI96
aI41
aI49
aI126
aI49
aI38
aI104
aI91
aI18
aI50
aI11
aI127
aI74
aI3
aI17
aI27
aI41
aI0
aI49
aI25
aI29
aI16
aI159
aI109
aI47
aI138
aI77
aI27
aI144
aI75
aI5
aI23
aI70
aI73
aI102
aI105
aI118
aI181
aI57
aa(lp27
I176
aI193
aI142
aI29
aI95
aI119
aI6
aI68
aI30
aI33
aI0
aI173
aI100
aI52
aI107
aI124
aI3
aI123
aI112
aI59
aI95
aI100
aI150
aI80
aI0
aI118
aI156
aI3
aI24
aI197
aI24
aI150
aI3
aI124
aI180
aI35
aI87
aI79
aI27
aI55
aI187
aI101
aI170
aI0
aI51
aI142
aI140
aI82
aI86
aI87
aI9
aI20
aI22
aI134
aI105
aI87
aI65
aI59
aI67
aI132
aI11
aI15
aI58
aI0
aI91
aI133
aI169
aI0
aI84
aI6
aa(lp28
I23
aI10
aI18
aI18
aI91
aI16
aI71
aI112
aI97
aI74
aI53
aI46
aI32
aI187
aI91
aI15
aI2
aI16
aI61
aI64
aI25
aI56
aI90
aI64
aI51
aI50
aI53
aI118
aI85
aI84
aI6
aI109
aI62
aI103
aI117
aI141
aI85
aI3
aI111
aI102
aI19
aI64
aI127
aI21
aI62
aI21
aI121
aI47
aI80
aI22
aI29
aI16
aI63
aI53
aI51
aI84
aI64
aI37
aI31
aI45
aI3
aI152
aI63
aI180
aI92
aI6
aI98
aI13
aI14
aI75
aa(lp29
I93
aI155
aI181
aI67
aI177
aI92
aI75
aI26
aI95
aI75
aI47
aI111
aI15
aI7
aI54
aI4
aI34
aI61
aI11
aI10
aI0
aI33
aI179
aI177
aI65
aI169
aI121
aI196
aI21
aI117
aI119
aI129
aI124
aI39
aI122
aI85
aI75
aI121
aI141
aI25
aI51
aI165
aI117
aI23
aI117
aI139
aI82
aI95
aI32
aI22
aI191
aI33
aI9
aI56
aI5
aI126
aI72
aI9
aI26
aI173
aI78
aI90
aI162
aI11
aI87
aI47
aI9
aI13
aI38
aI141
aa(lp30
I0
aI199
aI47
aI2
aI88
aI63
aI115
aI74
aI107
aI31
aI84
aI15
aI10
aI4
aI56
aI17
aI7
aI105
aI56
aI113
aI10
aI95
aI186
aI18
aI64
aI0
aI49
aI8
aI185
aI12
aI82
aI149
aI11
aI126
aI33
aI191
aI135
aI80
aI111
aI50
aI16
aI186
aI174
aI45
aI31
aI63
aI106
aI9
aI153
aI34
aI89
aI47
aI24
aI86
aI45
aI84
aI137
aI140
aI110
aI39
aI30
aI13
aI24
aI75
aI42
aI8
aI44
aI56
aI31
aI50
aa.